-----BEGIN RSA PRIVATE KEY-----
Proc-Type: 4,ENCRYPTED
DEK-Info: AES-128-CBC,865F89C334224C9097AA96B0B450E4D0

FG5BkuDo/bnD4ceaxckbeSZ/0vlBQI1d3BJWJMqmBKK4r0C1NBaUxQAtvX3g2d6M
o2cbl76rwG5M49ndq5ZT6I64GLG0xSbZrMl3g1SpU6tPvw4XXTHscNpeLng6FcUF
qMgXrn3cVi1iYomE03RHz1RqQTjdhHq4akVb2A7SOcAAj4xlkYrDBsFt+Ht3PVBt
IK2XV02yMpIWLFacKI56M66kFvDQ0gxYWt6TwTN8xCoQXCi6XU3AIcdM6KjqOGhV
Y4o32G+/MawRfSa922ezTj1xSr9KoUQK/KH2wjm9wfq8aP2eVSNhrgYE1yZZeGIY
U+pOtZrNRqhYKI1o5n3LGnddAtVeClvRg9lgQ+SBvj6+pBRWH8dtNJhxktaxCBuH
G62Ka0eGhOZUsvz1XfrOGJKpWpWnEOFBZJzUWwDdZc+I9nNLTBtICdWZwf12L9yA
Er9WRRIPcVWoq+Ua9GwlwrnpkjyyHOeWl1RVmhHJWfpOoV4qze8B2g+Kzs2uWmSG
EUzWYn9tCjPTBUujdweZx9tc2R6BSF5rXLYRKJ/uBjjR/CdT7SvqA1c4u0G6X2kZ
xhYGWdxJ3OxO4+QZ+AuHFYQnpCLTpnqhdbCgUy8gnwIw4BC2DuxGUhTN3GfY4rBK
/PbeO/cmNbT3aeOVnK4/OVE2DgUBmSq99ELYJbBdiuSXk5toKmCFUSFAKRZyNf6H
P0kbSyc6mAxU1njr0Ja0xlySvRTt1FmAHXHVtpxql2TwRQ6n13bt8nNL6RWBwtu5
5iVY5xOUGZpHjotP7gyWNc4FNxdcNtSgYESRYUZPrxw/+HFQBjZSMcjX8GLT1wFa
-----END RSA PRIVATE KEY-----
Certificate:
    Data:
        Version: 3 (0x2)
        Serial Number: 4096 (0x1000)
    Signature Algorithm: sha1WithRSAEncryption
        Issuer: C=US, ST=UT, L=Logan, O=Maymays, OU=420, CN=Danny/emailAddress=danioliable@hotmail.com
        Validity
            Not Before: Oct 12 03:09:40 2017 GMT
            Not After : Oct 12 03:09:40 2018 GMT
        Subject: C=US, ST=UT, O=Maymays, OU=420, CN=PKILabServer.com/emailAddress=danioliable@hotmail.com
        Subject Public Key Info:
            Public Key Algorithm: rsaEncryption
                Public-Key: (1024 bit)
                Modulus:
                    00:d1:ef:ec:2b:b1:c9:5a:e0:06:89:ed:6b:01:28:
                    0f:48:6a:b0:35:12:77:80:28:c0:7e:33:7d:e8:39:
                    0f:fd:bf:ba:c5:d6:b9:22:9b:33:e6:51:20:82:73:
                    19:70:16:db:ff:1f:fd:11:79:99:b7:73:3a:d9:ba:
                    a3:7a:4b:fc:4e:45:8b:de:b6:7e:c4:ec:7d:54:51:
                    8e:bd:b4:05:72:c9:d9:09:70:dd:57:d1:c8:1b:d5:
                    1b:2d:65:51:b0:52:7c:47:fe:1b:5c:a6:d9:5e:e2:
                    2a:8a:bb:d4:08:a8:15:7b:af:d5:56:97:9b:24:ce:
                    16:79:68:e2:0b:7e:ac:a5:8d
                Exponent: 65537 (0x10001)
        X509v3 extensions:
            X509v3 Basic Constraints: 
                CA:FALSE
            Netscape Comment: 
                OpenSSL Generated Certificate
            X509v3 Subject Key Identifier: 
                A7:AD:BB:7E:A7:D2:4C:21:88:AA:B5:C1:8B:2E:04:3B:C2:73:FD:F3
            X509v3 Authority Key Identifier: 
                keyid:48:F6:F6:BD:2C:4E:58:62:B1:44:FC:AD:E0:8C:07:7B:A1:FE:8D:78

    Signature Algorithm: sha1WithRSAEncryption
         99:60:9e:69:99:e5:6d:ec:73:14:b1:a3:8b:76:0d:4d:64:c7:
         61:34:af:b9:b2:6e:bd:ff:41:9d:1b:82:7c:2a:12:06:e1:21:
         db:2e:59:e4:ac:28:a6:5a:ad:9e:8e:82:0f:a5:f4:a4:f5:c8:
         d8:a3:f8:7e:1f:73:03:fc:8f:32:55:39:c4:e7:1d:a6:c5:fb:
         29:ef:22:31:15:0d:b8:60:98:8d:6e:78:cb:39:94:fb:07:6a:
         74:22:01:74:3a:e6:9c:30:aa:f0:52:4f:a7:54:c2:ff:47:27:
         1d:f2:cb:b3:d3:6e:81:17:a5:1a:77:a5:f3:27:1c:ec:c3:61:
         12:10
-----BEGIN CERTIFICATE-----
MIIC8jCCAlugAwIBAgICEAAwDQYJKoZIhvcNAQEFBQAwgYIxCzAJBgNVBAYTAlVT
MQswCQYDVQQIDAJVVDEOMAwGA1UEBwwFTG9nYW4xEDAOBgNVBAoMB01heW1heXMx
DDAKBgNVBAsMAzQyMDEOMAwGA1UEAwwFRGFubnkxJjAkBgkqhkiG9w0BCQEWF2Rh
bmlvbGlhYmxlQGhvdG1haWwuY29tMB4XDTE3MTAxMjAzMDk0MFoXDTE4MTAxMjAz
MDk0MFowfTELMAkGA1UEBhMCVVMxCzAJBgNVBAgMAlVUMRAwDgYDVQQKDAdNYXlt
YXlzMQwwCgYDVQQLDAM0MjAxGTAXBgNVBAMMEFBLSUxhYlNlcnZlci5jb20xJjAk
BgkqhkiG9w0BCQEWF2RhbmlvbGlhYmxlQGhvdG1haWwuY29tMIGfMA0GCSqGSIb3
DQEBAQUAA4GNADCBiQKBgQDR7+wrscla4AaJ7WsBKA9IarA1EneAKMB+M33oOQ/9
v7rF1rkimzPmUSCCcxlwFtv/H/0ReZm3czrZuqN6S/xORYvetn7E7H1UUY69tAVy
ydkJcN1X0cgb1RstZVGwUnxH/htcptle4iqKu9QIqBV7r9VWl5skzhZ5aOILfqyl
jQIDAQABo3sweTAJBgNVHRMEAjAAMCwGCWCGSAGG+EIBDQQfFh1PcGVuU1NMIEdl
bmVyYXRlZCBDZXJ0aWZpY2F0ZTAdBgNVHQ4EFgQUp627fqfSTCGIqrXBiy4EO8Jz
/fMwHwYDVR0jBBgwFoAUSPb2vSxOWGKxRPyt4IwHe6H+jXgwDQYJKoZIhvcNAQEF
BQADgYEAmWCeaZnlbexzFLGji3YNTWTHYTSvubJuvf9BnRuCfCoSBuEh2y5Z5Kwo
plqtno6CD6X0pPXI2KP4fh9zA/yPMlU5xOcdpsX7Ke8iMRUNuGCYjW54yzmU+wdq
dCIBdDrmnDCq8FJPp1TC/0cnHfLLs9NugRelGnel8ycc7MNhEhA=
-----END CERTIFICATE-----
